target datalayout = "e-m:e-p270:32:32-p271:32:32-p272:64:64-i64:64-i128:128-f80:128-n8:16:32:64-S128"
target triple = "x86_64-unknown-linux-gnu"

%"class.OpenColorIO_v2_4dev::GenericGpuShaderDesc" = type { %"class.OpenColorIO_v2_4dev::GpuShaderDesc", ptr }
%"class.OpenColorIO_v2_4dev::GpuShaderDesc" = type { %"class.OpenColorIO_v2_4dev::GpuShaderCreator" }
%"class.OpenColorIO_v2_4dev::GpuShaderCreator" = type { ptr, ptr }
%"class.OpenColorIO_v2_4dev::GPUShaderImpl::PrivateImpl" = type <{ ptr, %"class.std::vector", %"class.std::vector", %"class.std::vector.0", i32, i8, [3 x i8] }>
%"class.std::vector" = type { %"struct.std::_Vector_base" }
%"struct.std::_Vector_base" = type { %"struct.std::_Vector_base<OpenColorIO_v2_4dev::GPUShaderImpl::PrivateImpl::Texture, std::allocator<OpenColorIO_v2_4dev::GPUShaderImpl::PrivateImpl::Texture>>::_Vector_impl" }
%"struct.std::_Vector_base<OpenColorIO_v2_4dev::GPUShaderImpl::PrivateImpl::Texture, std::allocator<OpenColorIO_v2_4dev::GPUShaderImpl::PrivateImpl::Texture>>::_Vector_impl" = type { %"struct.std::_Vector_base<OpenColorIO_v2_4dev::GPUShaderImpl::PrivateImpl::Texture, std::allocator<OpenColorIO_v2_4dev::GPUShaderImpl::PrivateImpl::Texture>>::_Vector_impl_data" }
%"struct.std::_Vector_base<OpenColorIO_v2_4dev::GPUShaderImpl::PrivateImpl::Texture, std::allocator<OpenColorIO_v2_4dev::GPUShaderImpl::PrivateImpl::Texture>>::_Vector_impl_data" = type { ptr, ptr, ptr }
%"class.std::vector.0" = type { %"struct.std::_Vector_base.1" }
%"struct.std::_Vector_base.1" = type { %"struct.std::_Vector_base<OpenColorIO_v2_4dev::GPUShaderImpl::PrivateImpl::Uniform, std::allocator<OpenColorIO_v2_4dev::GPUShaderImpl::PrivateImpl::Uniform>>::_Vector_impl" }
%"struct.std::_Vector_base<OpenColorIO_v2_4dev::GPUShaderImpl::PrivateImpl::Uniform, std::allocator<OpenColorIO_v2_4dev::GPUShaderImpl::PrivateImpl::Uniform>>::_Vector_impl" = type { %"struct.std::_Vector_base<OpenColorIO_v2_4dev::GPUShaderImpl::PrivateImpl::Uniform, std::allocator<OpenColorIO_v2_4dev::GPUShaderImpl::PrivateImpl::Uniform>>::_Vector_impl_data" }
%"struct.std::_Vector_base<OpenColorIO_v2_4dev::GPUShaderImpl::PrivateImpl::Uniform, std::allocator<OpenColorIO_v2_4dev::GPUShaderImpl::PrivateImpl::Uniform>>::_Vector_impl_data" = type { ptr, ptr, ptr }
%"class.std::__cxx11::basic_string" = type { %"struct.std::__cxx11::basic_string<char>::_Alloc_hider", i64, %union.anon }
%"struct.std::__cxx11::basic_string<char>::_Alloc_hider" = type { ptr }
%union.anon = type { i64, [8 x i8] }
%"struct.OpenColorIO_v2_4dev::GPUShaderImpl::PrivateImpl::Uniform" = type { %"class.std::__cxx11::basic_string", %"struct.OpenColorIO_v2_4dev::GpuShaderDesc::UniformData" }
%"struct.OpenColorIO_v2_4dev::GpuShaderDesc::UniformData" = type { i32, %"class.std::function", %"class.std::function.5", %"class.std::function.7", %"struct.OpenColorIO_v2_4dev::GpuShaderDesc::UniformData::VectorFloat", %"struct.OpenColorIO_v2_4dev::GpuShaderDesc::UniformData::VectorInt" }
%"class.std::function" = type { %"class.std::_Function_base", ptr }
%"class.std::_Function_base" = type { %"union.std::_Any_data", ptr }
%"union.std::_Any_data" = type { %"union.std::_Nocopy_types" }
%"union.std::_Nocopy_types" = type { { i64, i64 } }
%"class.std::function.5" = type { %"class.std::_Function_base", ptr }
%"class.std::function.7" = type { %"class.std::_Function_base", ptr }
%"struct.OpenColorIO_v2_4dev::GpuShaderDesc::UniformData::VectorFloat" = type { %"class.std::function.9", %"class.std::function.11" }
%"class.std::function.9" = type { %"class.std::_Function_base", ptr }
%"class.std::function.11" = type { %"class.std::_Function_base", ptr }
%"struct.OpenColorIO_v2_4dev::GpuShaderDesc::UniformData::VectorInt" = type { %"class.std::function.9", %"class.std::function.13" }
%"class.std::function.13" = type { %"class.std::_Function_base", ptr }
%"class.__gnu_cxx::__normal_iterator.24" = type { ptr }

; Function Attrs: mustprogress nounwind uwtable
define linkonce_odr hidden void @_ZN9__gnu_cxx17__normal_iteratorIPN19OpenColorIO_v2_4dev13GPUShaderImpl11PrivateImpl7UniformESt6vectorIS4_SaIS4_EEEC2ERKS5_(ptr noundef nonnull align 8 dereferenceable(8) %this, ptr noundef nonnull align 8 dereferenceable(8) %__i) unnamed_addr #7 comdat align 2 {
entry:
  %this.addr = alloca ptr, align 8
  %__i.addr = alloca ptr, align 8
  store ptr %this, ptr %this.addr, align 8
  store ptr %__i, ptr %__i.addr, align 8
  %this1 = load ptr, ptr %this.addr, align 8
  %_M_current = getelementptr inbounds %"class.__gnu_cxx::__normal_iterator.24", ptr %this1, i32 0, i32 0
  %0 = load ptr, ptr %__i.addr, align 8
  %1 = load ptr, ptr %0, align 8
  store ptr %1, ptr %_M_current, align 8
  ret void
}

; Function Attrs: mustprogress uwtable
define linkonce_odr hidden void @_ZNSt15__new_allocatorIN19OpenColorIO_v2_4dev13GPUShaderImpl11PrivateImpl7UniformEE9constructIS3_JRPKcRKSt8functionIFdvEEEEEvPT_DpOT0_(ptr noundef nonnull align 1 dereferenceable(1) %this, ptr noundef %__p, ptr noundef nonnull align 8 dereferenceable(8) %__args, ptr noundef nonnull align 8 dereferenceable(32) %__args1) #4 comdat align 2 {
entry:
  %this.addr = alloca ptr, align 8
  %__p.addr = alloca ptr, align 8
  %__args.addr = alloca ptr, align 8
  %__args.addr2 = alloca ptr, align 8
  store ptr %this, ptr %this.addr, align 8
  store ptr %__p, ptr %__p.addr, align 8
  store ptr %__args, ptr %__args.addr, align 8
  store ptr %__args1, ptr %__args.addr2, align 8
  %0 = load ptr, ptr %__p.addr, align 8
  %1 = load ptr, ptr %__args.addr, align 8
  %2 = load ptr, ptr %1, align 8
  %3 = load ptr, ptr %__args.addr2, align 8
  call void @_ZN19OpenColorIO_v2_4dev13GPUShaderImpl11PrivateImpl7UniformC2EPKcRKSt8functionIFdvEE(ptr noundef nonnull align 8 dereferenceable(264) %0, ptr noundef %2, ptr noundef nonnull align 8 dereferenceable(32) %3)
  ret void
}

; Function Attrs: mustprogress nounwind uwtable
define linkonce_odr hidden ptr @_ZNSt6vectorIN19OpenColorIO_v2_4dev13GPUShaderImpl11PrivateImpl7UniformESaIS3_EE3endEv(ptr noundef nonnull align 8 dereferenceable(24) %this) #7 comdat align 2 {
entry:
  %retval = alloca %"class.__gnu_cxx::__normal_iterator.24", align 8
  %this.addr = alloca ptr, align 8
  store ptr %this, ptr %this.addr, align 8
  %this1 = load ptr, ptr %this.addr, align 8
  %_M_impl = getelementptr inbounds %"struct.std::_Vector_base.1", ptr %this1, i32 0, i32 0
  %_M_finish = getelementptr inbounds %"struct.std::_Vector_base<OpenColorIO_v2_4dev::GPUShaderImpl::PrivateImpl::Uniform, std::allocator<OpenColorIO_v2_4dev::GPUShaderImpl::PrivateImpl::Uniform>>::_Vector_impl_data", ptr %_M_impl, i32 0, i32 1
  call void @_ZN9__gnu_cxx17__normal_iteratorIPN19OpenColorIO_v2_4dev13GPUShaderImpl11PrivateImpl7UniformESt6vectorIS4_SaIS4_EEEC2ERKS5_(ptr noundef nonnull align 8 dereferenceable(8) %retval, ptr noundef nonnull align 8 dereferenceable(8) %_M_finish) #3
  %coerce.dive = getelementptr inbounds %"class.__gnu_cxx::__normal_iterator.24", ptr %retval, i32 0, i32 0
  %0 = load ptr, ptr %coerce.dive, align 8
  ret ptr %0
}

; Function Attrs: mustprogress uwtable
define linkonce_odr hidden void @_ZNSt16allocator_traitsISaIN19OpenColorIO_v2_4dev13GPUShaderImpl11PrivateImpl7UniformEEE9constructIS3_JRPKcRKSt8functionIFdvEEEEEvRS4_PT_DpOT0_(ptr noundef nonnull align 1 dereferenceable(1) %__a, ptr noundef %__p, ptr noundef nonnull align 8 dereferenceable(8) %__args, ptr noundef nonnull align 8 dereferenceable(32) %__args1) #4 comdat align 2 {
entry:
  %__a.addr = alloca ptr, align 8
  %__p.addr = alloca ptr, align 8
  %__args.addr = alloca ptr, align 8
  %__args.addr2 = alloca ptr, align 8
  store ptr %__a, ptr %__a.addr, align 8
  store ptr %__p, ptr %__p.addr, align 8
  store ptr %__args, ptr %__args.addr, align 8
  store ptr %__args1, ptr %__args.addr2, align 8
  %0 = load ptr, ptr %__a.addr, align 8
  %1 = load ptr, ptr %__p.addr, align 8
  %2 = load ptr, ptr %__args.addr, align 8
  %3 = load ptr, ptr %__args.addr2, align 8
  call void @_ZNSt15__new_allocatorIN19OpenColorIO_v2_4dev13GPUShaderImpl11PrivateImpl7UniformEE9constructIS3_JRPKcRKSt8functionIFdvEEEEEvPT_DpOT0_(ptr noundef nonnull align 1 dereferenceable(1) %0, ptr noundef %1, ptr noundef nonnull align 8 dereferenceable(8) %2, ptr noundef nonnull align 8 dereferenceable(32) %3)
  ret void
}

; Function Attrs: mustprogress uwtable
define linkonce_odr hidden void @_ZNSt6vectorIN19OpenColorIO_v2_4dev13GPUShaderImpl11PrivateImpl7UniformESaIS3_EE12emplace_backIJRPKcRKSt8functionIFdvEEEEEvDpOT_(ptr noundef nonnull align 8 dereferenceable(24) %this, ptr noundef nonnull align 8 dereferenceable(8) %__args, ptr noundef nonnull align 8 dereferenceable(32) %__args1) #4 comdat align 2 {
entry:
  %this.addr = alloca ptr, align 8
  %__args.addr = alloca ptr, align 8
  %__args.addr2 = alloca ptr, align 8
  %agg.tmp = alloca %"class.__gnu_cxx::__normal_iterator.24", align 8
  store ptr %this, ptr %this.addr, align 8
  store ptr %__args, ptr %__args.addr, align 8
  store ptr %__args1, ptr %__args.addr2, align 8
  %this3 = load ptr, ptr %this.addr, align 8
  %_M_impl = getelementptr inbounds %"struct.std::_Vector_base.1", ptr %this3, i32 0, i32 0
  %_M_finish = getelementptr inbounds %"struct.std::_Vector_base<OpenColorIO_v2_4dev::GPUShaderImpl::PrivateImpl::Uniform, std::allocator<OpenColorIO_v2_4dev::GPUShaderImpl::PrivateImpl::Uniform>>::_Vector_impl_data", ptr %_M_impl, i32 0, i32 1
  %0 = load ptr, ptr %_M_finish, align 8
  %_M_impl4 = getelementptr inbounds %"struct.std::_Vector_base.1", ptr %this3, i32 0, i32 0
  %_M_end_of_storage = getelementptr inbounds %"struct.std::_Vector_base<OpenColorIO_v2_4dev::GPUShaderImpl::PrivateImpl::Uniform, std::allocator<OpenColorIO_v2_4dev::GPUShaderImpl::PrivateImpl::Uniform>>::_Vector_impl_data", ptr %_M_impl4, i32 0, i32 2
  %1 = load ptr, ptr %_M_end_of_storage, align 8
  %cmp = icmp ne ptr %0, %1
  br i1 %cmp, label %if.then, label %if.else

if.then:                                          ; preds = %entry
  %_M_impl5 = getelementptr inbounds %"struct.std::_Vector_base.1", ptr %this3, i32 0, i32 0
  %_M_impl6 = getelementptr inbounds %"struct.std::_Vector_base.1", ptr %this3, i32 0, i32 0
  %_M_finish7 = getelementptr inbounds %"struct.std::_Vector_base<OpenColorIO_v2_4dev::GPUShaderImpl::PrivateImpl::Uniform, std::allocator<OpenColorIO_v2_4dev::GPUShaderImpl::PrivateImpl::Uniform>>::_Vector_impl_data", ptr %_M_impl6, i32 0, i32 1
  %2 = load ptr, ptr %_M_finish7, align 8
  %3 = load ptr, ptr %__args.addr, align 8
  %4 = load ptr, ptr %__args.addr2, align 8
  call void @_ZNSt16allocator_traitsISaIN19OpenColorIO_v2_4dev13GPUShaderImpl11PrivateImpl7UniformEEE9constructIS3_JRPKcRKSt8functionIFdvEEEEEvRS4_PT_DpOT0_(ptr noundef nonnull align 1 dereferenceable(1) %_M_impl5, ptr noundef %2, ptr noundef nonnull align 8 dereferenceable(8) %3, ptr noundef nonnull align 8 dereferenceable(32) %4)
  %_M_impl8 = getelementptr inbounds %"struct.std::_Vector_base.1", ptr %this3, i32 0, i32 0
  %_M_finish9 = getelementptr inbounds %"struct.std::_Vector_base<OpenColorIO_v2_4dev::GPUShaderImpl::PrivateImpl::Uniform, std::allocator<OpenColorIO_v2_4dev::GPUShaderImpl::PrivateImpl::Uniform>>::_Vector_impl_data", ptr %_M_impl8, i32 0, i32 1
  %5 = load ptr, ptr %_M_finish9, align 8
  %incdec.ptr = getelementptr inbounds %"struct.OpenColorIO_v2_4dev::GPUShaderImpl::PrivateImpl::Uniform", ptr %5, i32 1
  store ptr %incdec.ptr, ptr %_M_finish9, align 8
  br label %if.end

if.else:                                          ; preds = %entry
  %call = call ptr @_ZNSt6vectorIN19OpenColorIO_v2_4dev13GPUShaderImpl11PrivateImpl7UniformESaIS3_EE3endEv(ptr noundef nonnull align 8 dereferenceable(24) %this3) #3
  %coerce.dive = getelementptr inbounds %"class.__gnu_cxx::__normal_iterator.24", ptr %agg.tmp, i32 0, i32 0
  store ptr %call, ptr %coerce.dive, align 8
  %6 = load ptr, ptr %__args.addr, align 8
  %7 = load ptr, ptr %__args.addr2, align 8
  %coerce.dive10 = getelementptr inbounds %"class.__gnu_cxx::__normal_iterator.24", ptr %agg.tmp, i32 0, i32 0
  %8 = load ptr, ptr %coerce.dive10, align 8
  call void @_ZNSt6vectorIN19OpenColorIO_v2_4dev13GPUShaderImpl11PrivateImpl7UniformESaIS3_EE17_M_realloc_insertIJRPKcRKSt8functionIFdvEEEEEvN9__gnu_cxx17__normal_iteratorIPS3_S5_EEDpOT_(ptr noundef nonnull align 8 dereferenceable(24) %this3, ptr %8, ptr noundef nonnull align 8 dereferenceable(8) %6, ptr noundef nonnull align 8 dereferenceable(32) %7)
  br label %if.end

if.end:                                           ; preds = %if.else, %if.then
  ret void
}

; Function Attrs: mustprogress uwtable
define linkonce_odr hidden noundef zeroext i1 @_ZN19OpenColorIO_v2_4dev13GPUShaderImpl11PrivateImpl10addUniformEPKcRKSt8functionIFdvEE(ptr noundef nonnull align 8 dereferenceable(85) %this, ptr noundef %name, ptr noundef nonnull align 8 dereferenceable(32) %getter) #4 comdat align 2 {
entry:
  %retval = alloca i1, align 1
  %this.addr = alloca ptr, align 8
  %name.addr = alloca ptr, align 8
  %getter.addr = alloca ptr, align 8
  store ptr %this, ptr %this.addr, align 8
  store ptr %name, ptr %name.addr, align 8
  store ptr %getter, ptr %getter.addr, align 8
  %this1 = load ptr, ptr %this.addr, align 8
  %0 = load ptr, ptr %name.addr, align 8
  %call = call noundef zeroext i1 @_ZNK19OpenColorIO_v2_4dev13GPUShaderImpl11PrivateImpl15uniformNameUsedEPKc(ptr noundef nonnull align 8 dereferenceable(85) %this1, ptr noundef %0)
  br i1 %call, label %if.then, label %if.end

if.then:                                          ; preds = %entry
  store i1 false, ptr %retval, align 1
  br label %return

if.end:                                           ; preds = %entry
  %m_uniforms = getelementptr inbounds %"class.OpenColorIO_v2_4dev::GPUShaderImpl::PrivateImpl", ptr %this1, i32 0, i32 3
  %1 = load ptr, ptr %getter.addr, align 8
  call void @_ZNSt6vectorIN19OpenColorIO_v2_4dev13GPUShaderImpl11PrivateImpl7UniformESaIS3_EE12emplace_backIJRPKcRKSt8functionIFdvEEEEEvDpOT_(ptr noundef nonnull align 8 dereferenceable(24) %m_uniforms, ptr noundef nonnull align 8 dereferenceable(8) %name.addr, ptr noundef nonnull align 8 dereferenceable(32) %1)
  store i1 true, ptr %retval, align 1
  br label %return

return:                                           ; preds = %if.end, %if.then
  %2 = load i1, ptr %retval, align 1
  ret i1 %2
}

; Function Attrs: mustprogress nounwind uwtable
define linkonce_odr hidden noundef ptr @_ZN19OpenColorIO_v2_4dev20GenericGpuShaderDesc14getImplGenericEv(ptr noundef nonnull align 8 dereferenceable(24) %this) #7 comdat align 2 {
entry:
  %this.addr = alloca ptr, align 8
  store ptr %this, ptr %this.addr, align 8
  %this1 = load ptr, ptr %this.addr, align 8
  %m_implGeneric = getelementptr inbounds %"class.OpenColorIO_v2_4dev::GenericGpuShaderDesc", ptr %this1, i32 0, i32 1
  %0 = load ptr, ptr %m_implGeneric, align 8
  ret ptr %0
}

; Function Attrs: mustprogress uwtable
define hidden noundef zeroext i1 @_ZN19OpenColorIO_v2_4dev20GenericGpuShaderDesc10addUniformEPKcRKSt8functionIFdvEE(ptr noundef nonnull align 8 dereferenceable(24) %this, ptr noundef %name, ptr noundef nonnull align 8 dereferenceable(32) %getter) unnamed_addr #4 align 2 {
entry:
  %this.addr = alloca ptr, align 8
  %name.addr = alloca ptr, align 8
  %getter.addr = alloca ptr, align 8
  store ptr %this, ptr %this.addr, align 8
  store ptr %name, ptr %name.addr, align 8
  store ptr %getter, ptr %getter.addr, align 8
  %this1 = load ptr, ptr %this.addr, align 8
  %call = call noundef ptr @_ZN19OpenColorIO_v2_4dev20GenericGpuShaderDesc14getImplGenericEv(ptr noundef nonnull align 8 dereferenceable(24) %this1)
  %0 = load ptr, ptr %name.addr, align 8
  %1 = load ptr, ptr %getter.addr, align 8
  %call2 = call noundef zeroext i1 @_ZN19OpenColorIO_v2_4dev13GPUShaderImpl11PrivateImpl10addUniformEPKcRKSt8functionIFdvEE(ptr noundef nonnull align 8 dereferenceable(85) %call, ptr noundef %0, ptr noundef nonnull align 8 dereferenceable(32) %1)
  ret i1 %call2
}