; Function Attrs: mustprogress uwtable
define hidden noundef zeroext i1 @_ZN19OpenColorIO_v2_4dev20GenericGpuShaderDesc10addUniformEPKcRKSt8functionIFdvEE(ptr nocapture noundef nonnull readonly align 8 dereferenceable(24) %this, ptr noundef %name, ptr noundef nonnull align 8 dereferenceable(32) %getter) unnamed_addr #3 align 2 {
entry:
  %name.addr.i = alloca ptr, align 8
  %m_implGeneric.i = getelementptr inbounds i8, ptr %this, i64 16
  %0 = load ptr, ptr %m_implGeneric.i, align 8
  call void @llvm.lifetime.start.p0(i64 8, ptr nonnull %name.addr.i)
  store ptr %name, ptr %name.addr.i, align 8
  %call.i = tail call noundef zeroext i1 @_ZNK19OpenColorIO_v2_4dev13GPUShaderImpl11PrivateImpl15uniformNameUsedEPKc(ptr noundef nonnull align 8 dereferenceable(85) %0, ptr noundef %name)
  br i1 %call.i, label %_ZN19OpenColorIO_v2_4dev13GPUShaderImpl11PrivateImpl10addUniformEPKcRKSt8functionIFdvEE.exit, label %if.end.i

if.end.i:                                         ; preds = %entry
  %_M_finish.i.i = getelementptr inbounds i8, ptr %0, i64 64
  %1 = load ptr, ptr %_M_finish.i.i, align 8
  %_M_end_of_storage.i.i = getelementptr inbounds i8, ptr %0, i64 72
  %2 = load ptr, ptr %_M_end_of_storage.i.i, align 8
  %cmp.not.i.i = icmp eq ptr %1, %2
  br i1 %cmp.not.i.i, label %if.else.i.i, label %if.then.i.i

if.then.i.i:                                      ; preds = %if.end.i
  tail call void @_ZN19OpenColorIO_v2_4dev13GPUShaderImpl11PrivateImpl7UniformC2EPKcRKSt8functionIFdvEE(ptr noundef nonnull align 8 dereferenceable(264) %1, ptr noundef %name, ptr noundef nonnull align 8 dereferenceable(32) %getter)
  %3 = load ptr, ptr %_M_finish.i.i, align 8
  %incdec.ptr.i.i = getelementptr inbounds i8, ptr %3, i64 264
  store ptr %incdec.ptr.i.i, ptr %_M_finish.i.i, align 8
  br label %_ZN19OpenColorIO_v2_4dev13GPUShaderImpl11PrivateImpl10addUniformEPKcRKSt8functionIFdvEE.exit

if.else.i.i:                                      ; preds = %if.end.i
  %m_uniforms.i = getelementptr inbounds i8, ptr %0, i64 56
  call void @_ZNSt6vectorIN19OpenColorIO_v2_4dev13GPUShaderImpl11PrivateImpl7UniformESaIS3_EE17_M_realloc_insertIJRPKcRKSt8functionIFdvEEEEEvN9__gnu_cxx17__normal_iteratorIPS3_S5_EEDpOT_(ptr noundef nonnull align 8 dereferenceable(24) %m_uniforms.i, ptr %1, ptr noundef nonnull align 8 dereferenceable(8) %name.addr.i, ptr noundef nonnull align 8 dereferenceable(32) %getter)
  br label %_ZN19OpenColorIO_v2_4dev13GPUShaderImpl11PrivateImpl10addUniformEPKcRKSt8functionIFdvEE.exit

_ZN19OpenColorIO_v2_4dev13GPUShaderImpl11PrivateImpl10addUniformEPKcRKSt8functionIFdvEE.exit: ; preds = %entry, %if.then.i.i, %if.else.i.i
  %retval.0.i = xor i1 %call.i, true
  call void @llvm.lifetime.end.p0(i64 8, ptr nonnull %name.addr.i)
  ret i1 %retval.0.i
}